(iUVDeluxe.uistates
UiStates
p0
(dp1
S'collapseFrame2'
p2
I01
sS'collapseFrame3'
p3
I00
sS'collapseFrame0'
p4
I00
sS'collapseFrame1'
p5
I00
sS'collapseFrame6'
p6
I00
sS'collapseFrame7'
p7
I00
sS'collapseFrame4'
p8
I00
sS'collapseFrame5'
p9
I00
sS'forgetTextureSize'
p10
I00
sS'matchDist'
p11
F0.26316
sS'version'
p12
I100
sS'retainCS'
p13
I00
sS'textureSize'
p14
(I5
I5
tp15
sS'snapPath'
p16
VD:/outsource_art/source_art/model_export/t7_props/
p17
sS'widthHeight'
p18
(lp19
L1424L
aL1284L
asb.